; Function Attrs: mustprogress nounwind willreturn uwtable
define noundef i32 @xSAT_SolverEnqueue(ptr noundef readonly captures(none) %0, i32 noundef %1, i32 noundef %2) local_unnamed_addr #3 {
  %4 = ashr i32 %1, 1
  %5 = getelementptr inbounds nuw i8, ptr %0, i64 80
  %6 = load ptr, ptr %5, align 8, !tbaa !3
  %7 = trunc i32 %1 to i8
  %8 = and i8 %7, 1
  %9 = getelementptr i8, ptr %6, i64 8
  %.val12 = load ptr, ptr %9, align 8, !tbaa !28
  %10 = sext i32 %4 to i64
  %11 = getelementptr inbounds i8, ptr %.val12, i64 %10
  store i8 %8, ptr %11, align 1, !tbaa !29
  %12 = getelementptr inbounds nuw i8, ptr %0, i64 64
  %13 = load ptr, ptr %12, align 8, !tbaa !51
  %14 = getelementptr i8, ptr %0, i64 112
  %.val13 = load ptr, ptr %14, align 8, !tbaa !71
  %15 = getelementptr i8, ptr %.val13, i64 4
  %.val13.val = load i32, ptr %15, align 4, !tbaa !23
  %16 = getelementptr i8, ptr %13, i64 8
  %.val = load ptr, ptr %16, align 8, !tbaa !27
  %17 = getelementptr inbounds i32, ptr %.val, i64 %10
  store i32 %.val13.val, ptr %17, align 4, !tbaa !30
  %18 = getelementptr inbounds nuw i8, ptr %0, i64 72
  %19 = load ptr, ptr %18, align 8, !tbaa !72
  %20 = getelementptr i8, ptr %19, i64 8
  %.val11 = load ptr, ptr %20, align 8, !tbaa !27
  %21 = getelementptr inbounds i32, ptr %.val11, i64 %10
  store i32 %2, ptr %21, align 4, !tbaa !30
  %22 = getelementptr inbounds nuw i8, ptr %0, i64 104
  %23 = load ptr, ptr %22, align 8, !tbaa !73
  %24 = getelementptr inbounds nuw i8, ptr %23, i64 4
  %25 = load i32, ptr %24, align 4, !tbaa !23
  %26 = load i32, ptr %23, align 8, !tbaa !26
  %27 = icmp eq i32 %25, %26
  br i1 %27, label %28, label %.Vec_IntGrow.exit10_crit_edge.i

.Vec_IntGrow.exit10_crit_edge.i:                  ; preds = %3
  %.phi.trans.insert.i = getelementptr inbounds nuw i8, ptr %23, i64 8
  %.pre.i = load ptr, ptr %.phi.trans.insert.i, align 8, !tbaa !27
  br label %Vec_IntPush.exit

28:                                               ; preds = %3
  %29 = icmp slt i32 %25, 16
  br i1 %29, label %30, label %38

30:                                               ; preds = %28
  %31 = getelementptr inbounds nuw i8, ptr %23, i64 8
  %32 = load ptr, ptr %31, align 8, !tbaa !27
  %.not9.i.i = icmp eq ptr %32, null
  br i1 %.not9.i.i, label %35, label %33

33:                                               ; preds = %30
  %34 = tail call dereferenceable_or_null(64) ptr @realloc(ptr noundef nonnull %32, i64 noundef 64) #19
  br label %Vec_IntGrow.exit.i

35:                                               ; preds = %30
  %36 = tail call noalias dereferenceable_or_null(64) ptr @malloc(i64 noundef 64) #18
  br label %Vec_IntGrow.exit.i

Vec_IntGrow.exit.i:                               ; preds = %35, %33
  %37 = phi ptr [ %34, %33 ], [ %36, %35 ]
  store ptr %37, ptr %31, align 8, !tbaa !27
  store i32 16, ptr %23, align 8, !tbaa !26
  br label %Vec_IntPush.exit

38:                                               ; preds = %28
  %39 = shl nuw nsw i32 %25, 1
  %40 = getelementptr inbounds nuw i8, ptr %23, i64 8
  %41 = load ptr, ptr %40, align 8, !tbaa !27
  %.not9.i9.i = icmp eq ptr %41, null
  %42 = zext nneg i32 %39 to i64
  %43 = shl nuw nsw i64 %42, 2
  br i1 %.not9.i9.i, label %46, label %44

44:                                               ; preds = %38
  %45 = tail call ptr @realloc(ptr noundef nonnull %41, i64 noundef %43) #19
  br label %48

46:                                               ; preds = %38
  %47 = tail call noalias ptr @malloc(i64 noundef %43) #18
  br label %48

48:                                               ; preds = %46, %44
  %49 = phi ptr [ %45, %44 ], [ %47, %46 ]
  store ptr %49, ptr %40, align 8, !tbaa !27
  store i32 %39, ptr %23, align 8, !tbaa !26
  br label %Vec_IntPush.exit

Vec_IntPush.exit:                                 ; preds = %.Vec_IntGrow.exit10_crit_edge.i, %Vec_IntGrow.exit.i, %48
  %50 = phi ptr [ %.pre.i, %.Vec_IntGrow.exit10_crit_edge.i ], [ %49, %48 ], [ %37, %Vec_IntGrow.exit.i ]
  %51 = load i32, ptr %24, align 4, !tbaa !23
  %52 = add nsw i32 %51, 1
  store i32 %52, ptr %24, align 4, !tbaa !23
  %53 = sext i32 %51 to i64
  %54 = getelementptr inbounds i32, ptr %50, i64 %53
  store i32 %1, ptr %54, align 4, !tbaa !30
  ret i32 1
}